target datalayout = "e-m:e-p270:32:32-p271:32:32-p272:64:64-i64:64-i128:128-f80:128-n8:16:32:64-S128"
target triple = "x86_64-pc-linux-gnu"

%struct.slurm_conf_t = type { i64, ptr, i16, ptr, ptr, ptr, ptr, ptr, i16, ptr, ptr, ptr, ptr, ptr, ptr, ptr, i16, ptr, ptr, ptr, ptr, i16, ptr, ptr, ptr, i64, ptr, ptr, ptr, ptr, i16, ptr, ptr, i16, i32, ptr, i32, ptr, i32, i32, ptr, ptr, i64, i64, ptr, i16, i16, ptr, i32, i32, ptr, i32, ptr, i32, i16, i16, i16, ptr, i16, i16, ptr, ptr, i32, i16, i16, ptr, i32, i16, ptr, ptr, ptr, ptr, i16, ptr, ptr, ptr, ptr, i32, ptr, ptr, ptr, ptr, i16, i16, ptr, i32, i32, i32, i16, i16, ptr, ptr, i16, ptr, ptr, i32, i32, i32, i32, i32, i64, i32, i32, i16, ptr, ptr, i32, ptr, ptr, ptr, i16, i32, ptr, ptr, i16, ptr, ptr, i32, i16, ptr, ptr, ptr, ptr, i32, i32, i16, i16, i32, ptr, i16, ptr, i32, i32, i32, i32, i32, i32, ptr, i16, ptr, ptr, i32, i16, ptr, i32, i16, i16, ptr, ptr, ptr, i16, ptr, ptr, ptr, ptr, i16, i16, ptr, i16, ptr, i16, ptr, i16, ptr, i16, ptr, ptr, ptr, ptr, i16, ptr, ptr, ptr, i32, ptr, i32, ptr, ptr, i16, ptr, ptr, i32, i16, ptr, ptr, i16, i16, ptr, i16, ptr, ptr, ptr, i32, ptr, i16, i16, ptr, ptr, ptr, ptr, ptr, ptr, ptr, ptr, i16, i32, i16, ptr, ptr, ptr, ptr, i32, ptr, ptr, ptr, i16, ptr, ptr, ptr, i16, ptr, i16, ptr, i16, i16, ptr }
%struct.data_s = type { i32, i32, %union.anon }
%union.anon = type { ptr }

@.str = private unnamed_addr constant [7 x i8] c"data.c\00", align 1
@__func__.data_new = private unnamed_addr constant [9 x i8] c"data_new\00", align 1
@slurm_conf = external global %struct.slurm_conf_t, align 8
@.str.1 = private unnamed_addr constant [18 x i8] c"DATA: %s: new %pD\00", align 1

; Function Attrs: nounwind uwtable
define dso_local ptr @data_new() #0 {
  %1 = alloca ptr, align 8
  call void @llvm.lifetime.start.p0(i64 8, ptr %1) #10
  %2 = call ptr @slurm_xcalloc(i64 noundef 1, i64 noundef 16, i1 noundef zeroext true, i1 noundef zeroext false, ptr noundef @.str, i32 noundef 389, ptr noundef @__func__.data_new)
  store ptr %2, ptr %1, align 8
  %3 = load ptr, ptr %1, align 8
  %4 = getelementptr inbounds nuw %struct.data_s, ptr %3, i32 0, i32 0
  store i32 429004959, ptr %4, align 8
  %5 = load ptr, ptr %1, align 8
  %6 = getelementptr inbounds nuw %struct.data_s, ptr %5, i32 0, i32 1
  store i32 65281, ptr %6, align 4
  br label %7

7:                                                ; preds = %0
  %8 = load i64, ptr getelementptr inbounds nuw (%struct.slurm_conf_t, ptr @slurm_conf, i32 0, i32 42), align 8
  %9 = and i64 %8, 256
  %10 = icmp ne i64 %9, 0
  br i1 %10, label %11, label %20

11:                                               ; preds = %7
  br label %12

12:                                               ; preds = %11
  %13 = call i32 @get_log_level()
  %14 = icmp sge i32 %13, 4
  br i1 %14, label %15, label %17

15:                                               ; preds = %12
  %16 = load ptr, ptr %1, align 8
  call void (i32, ptr, ...) @log_var(i32 noundef 4, ptr noundef @.str.1, ptr noundef @__func__.data_new, ptr noundef %16)
  br label %17

17:                                               ; preds = %15, %12
  br label %18

18:                                               ; preds = %17
  br label %19

19:                                               ; preds = %18
  br label %20

20:                                               ; preds = %19, %7
  br label %21

21:                                               ; preds = %20
  br label %22

22:                                               ; preds = %21
  %23 = load ptr, ptr %1, align 8
  call void @llvm.lifetime.end.p0(i64 8, ptr %1) #10
  ret ptr %23
}