; Function Attrs: nounwind uwtable
define dso_local noundef ptr @data_new() local_unnamed_addr #0 {
  %1 = tail call ptr @slurm_xcalloc(i64 noundef 1, i64 noundef 16, i1 noundef zeroext true, i1 noundef zeroext false, ptr noundef nonnull @.str, i32 noundef 389, ptr noundef nonnull @__func__.data_new) #16
  store i32 429004959, ptr %1, align 8
  %2 = getelementptr inbounds nuw i8, ptr %1, i64 4
  store i32 65281, ptr %2, align 4
  %3 = load i64, ptr getelementptr inbounds nuw (i8, ptr @slurm_conf, i64 320), align 8
  %4 = and i64 %3, 256
  %.not = icmp eq i64 %4, 0
  br i1 %.not, label %9, label %5

5:                                                ; preds = %0
  %6 = tail call i32 @get_log_level() #16
  %7 = icmp sgt i32 %6, 3
  br i1 %7, label %8, label %9

8:                                                ; preds = %5
  tail call void (i32, ptr, ...) @log_var(i32 noundef 4, ptr noundef nonnull @.str.1, ptr noundef nonnull @__func__.data_new, ptr noundef nonnull %1) #16
  br label %9

9:                                                ; preds = %5, %8, %0
  ret ptr %1
}